target datalayout = "e-m:e-p270:32:32-p271:32:32-p272:64:64-i64:64-i128:128-f80:128-n8:16:32:64-S128"
target triple = "x86_64-pc-linux-gnu"

%"class.llvm::StringRef" = type { ptr, i64 }
%"class.llvm::SmallVectorBase" = type { ptr, i32, i32 }
%"class.llvm::SmallVector.219" = type { %"class.llvm::SmallVectorImpl.220", %"struct.llvm::SmallVectorStorage.223" }
%"class.llvm::SmallVectorImpl.220" = type { %"class.llvm::SmallVectorTemplateBase.221" }
%"class.llvm::SmallVectorTemplateBase.221" = type { %"class.llvm::SmallVectorTemplateCommon.222" }
%"class.llvm::SmallVectorTemplateCommon.222" = type { %"class.llvm::SmallVectorBase" }
%"struct.llvm::SmallVectorStorage.223" = type { [32 x i8] }

; Function Attrs: mustprogress nounwind uwtable
define linkonce_odr hidden noundef ptr @_ZNK4llvm25SmallVectorTemplateCommonIPNS_6MDNodeEvE10getFirstElEv(ptr noundef nonnull align 8 dereferenceable(16) %0) #1 comdat align 2 {
  %2 = alloca ptr, align 8
  store ptr %0, ptr %2, align 8
  %3 = load ptr, ptr %2, align 8
  %4 = getelementptr inbounds i8, ptr %3, i64 16
  ret ptr %4
}

; Function Attrs: mustprogress nounwind uwtable
define linkonce_odr hidden void @_ZN4llvm25SmallVectorTemplateCommonIPNS_6MDNodeEvEC2Em(ptr noundef nonnull align 8 dereferenceable(16) %0, i64 noundef %1) unnamed_addr #1 comdat align 2 {
  %3 = alloca ptr, align 8
  %4 = alloca i64, align 8
  store ptr %0, ptr %3, align 8
  store i64 %1, ptr %4, align 8
  %5 = load ptr, ptr %3, align 8
  %6 = call noundef ptr @_ZNK4llvm25SmallVectorTemplateCommonIPNS_6MDNodeEvE10getFirstElEv(ptr noundef nonnull align 8 dereferenceable(16) %5)
  %7 = load i64, ptr %4, align 8
  call void @_ZN4llvm15SmallVectorBaseIjEC2EPvm(ptr noundef nonnull align 8 dereferenceable(16) %5, ptr noundef %6, i64 noundef %7)
  ret void
}

; Function Attrs: mustprogress nounwind uwtable
define linkonce_odr hidden noundef zeroext i1 @_ZNK4llvm25SmallVectorTemplateCommonIPNS_6MDNodeEvE7isSmallEv(ptr noundef nonnull align 8 dereferenceable(16) %0) #1 comdat align 2 {
  %2 = alloca ptr, align 8
  store ptr %0, ptr %2, align 8
  %3 = load ptr, ptr %2, align 8
  %4 = getelementptr inbounds nuw %"class.llvm::SmallVectorBase", ptr %3, i32 0, i32 0
  %5 = load ptr, ptr %4, align 8
  %6 = call noundef ptr @_ZNK4llvm25SmallVectorTemplateCommonIPNS_6MDNodeEvE10getFirstElEv(ptr noundef nonnull align 8 dereferenceable(16) %3)
  %7 = icmp eq ptr %5, %6
  ret i1 %7
}

; Function Attrs: mustprogress nounwind uwtable
define linkonce_odr hidden void @_ZN4llvm23SmallVectorTemplateBaseIPNS_6MDNodeELb1EEC2Em(ptr noundef nonnull align 8 dereferenceable(16) %0, i64 noundef %1) unnamed_addr #1 comdat align 2 {
  %3 = alloca ptr, align 8
  %4 = alloca i64, align 8
  store ptr %0, ptr %3, align 8
  store i64 %1, ptr %4, align 8
  %5 = load ptr, ptr %3, align 8
  %6 = load i64, ptr %4, align 8
  call void @_ZN4llvm25SmallVectorTemplateCommonIPNS_6MDNodeEvEC2Em(ptr noundef nonnull align 8 dereferenceable(16) %5, i64 noundef %6)
  ret void
}

; Function Attrs: mustprogress nounwind uwtable
define linkonce_odr hidden void @_ZN4llvm15SmallVectorImplIPNS_6MDNodeEED2Ev(ptr noundef nonnull align 8 dereferenceable(16) %0) unnamed_addr #1 comdat align 2 {
  %2 = alloca ptr, align 8
  store ptr %0, ptr %2, align 8
  %3 = load ptr, ptr %2, align 8
  %4 = call noundef zeroext i1 @_ZNK4llvm25SmallVectorTemplateCommonIPNS_6MDNodeEvE7isSmallEv(ptr noundef nonnull align 8 dereferenceable(16) %3)
  br i1 %4, label %7, label %5

5:                                                ; preds = %1
  %6 = call noundef ptr @_ZN4llvm25SmallVectorTemplateCommonIPNS_6MDNodeEvE5beginEv(ptr noundef nonnull align 8 dereferenceable(16) %3)
  call void @free(ptr noundef %6) #2
  br label %7

7:                                                ; preds = %5, %1
  ret void
}

; Function Attrs: mustprogress nounwind uwtable
define linkonce_odr hidden void @_ZN4llvm23SmallVectorTemplateBaseIPNS_6MDNodeELb1EE13destroy_rangeEPS2_S4_(ptr noundef %0, ptr noundef %1) #1 comdat align 2 {
  %3 = alloca ptr, align 8
  %4 = alloca ptr, align 8
  store ptr %0, ptr %3, align 8
  store ptr %1, ptr %4, align 8
  ret void
}

; Function Attrs: mustprogress nounwind uwtable
define linkonce_odr hidden void @_ZN4llvm15SmallVectorImplIPNS_6MDNodeEEC2Ej(ptr noundef nonnull align 8 dereferenceable(16) %0, i32 noundef %1) unnamed_addr #1 comdat align 2 {
  %3 = alloca ptr, align 8
  %4 = alloca i32, align 4
  store ptr %0, ptr %3, align 8
  store i32 %1, ptr %4, align 4
  %5 = load ptr, ptr %3, align 8
  %6 = load i32, ptr %4, align 4
  %7 = zext i32 %6 to i64
  call void @_ZN4llvm23SmallVectorTemplateBaseIPNS_6MDNodeELb1EEC2Em(ptr noundef nonnull align 8 dereferenceable(16) %5, i64 noundef %7)
  ret void
}

; Function Attrs: mustprogress nounwind uwtable
define linkonce_odr hidden void @_ZN4llvm11SmallVectorIPNS_6MDNodeELj4EED2Ev(ptr noundef nonnull align 8 dereferenceable(48) %0) unnamed_addr #1 comdat align 2 {
  %2 = alloca ptr, align 8
  store ptr %0, ptr %2, align 8
  %3 = load ptr, ptr %2, align 8
  %4 = call noundef ptr @_ZN4llvm25SmallVectorTemplateCommonIPNS_6MDNodeEvE5beginEv(ptr noundef nonnull align 8 dereferenceable(16) %3)
  %5 = call noundef ptr @_ZN4llvm25SmallVectorTemplateCommonIPNS_6MDNodeEvE3endEv(ptr noundef nonnull align 8 dereferenceable(16) %3)
  call void @_ZN4llvm23SmallVectorTemplateBaseIPNS_6MDNodeELb1EE13destroy_rangeEPS2_S4_(ptr noundef %4, ptr noundef %5)
  call void @_ZN4llvm15SmallVectorImplIPNS_6MDNodeEED2Ev(ptr noundef nonnull align 8 dereferenceable(16) %3) #2
  ret void
}

; Function Attrs: mustprogress nounwind uwtable
define linkonce_odr hidden noundef ptr @_ZN4llvm25SmallVectorTemplateCommonIPNS_6MDNodeEvE3endEv(ptr noundef nonnull align 8 dereferenceable(16) %0) #1 comdat align 2 {
  %2 = alloca ptr, align 8
  store ptr %0, ptr %2, align 8
  %3 = load ptr, ptr %2, align 8
  %4 = call noundef ptr @_ZN4llvm25SmallVectorTemplateCommonIPNS_6MDNodeEvE5beginEv(ptr noundef nonnull align 8 dereferenceable(16) %3)
  %5 = call noundef i64 @_ZNK4llvm15SmallVectorBaseIjE4sizeEv(ptr noundef nonnull align 8 dereferenceable(16) %3)
  %6 = getelementptr inbounds ptr, ptr %4, i64 %5
  ret ptr %6
}

; Function Attrs: mustprogress nounwind uwtable
define linkonce_odr hidden noundef ptr @_ZN4llvm25SmallVectorTemplateCommonIPNS_6MDNodeEvE5beginEv(ptr noundef nonnull align 8 dereferenceable(16) %0) #1 comdat align 2 {
  %2 = alloca ptr, align 8
  store ptr %0, ptr %2, align 8
  %3 = load ptr, ptr %2, align 8
  %4 = getelementptr inbounds nuw %"class.llvm::SmallVectorBase", ptr %3, i32 0, i32 0
  %5 = load ptr, ptr %4, align 8
  ret ptr %5
}

; Function Attrs: mustprogress nounwind uwtable
define linkonce_odr hidden void @_ZN4llvm11SmallVectorIPNS_6MDNodeELj4EEC2Ev(ptr noundef nonnull align 8 dereferenceable(48) %0) unnamed_addr #1 comdat align 2 {
  %2 = alloca ptr, align 8
  store ptr %0, ptr %2, align 8
  %3 = load ptr, ptr %2, align 8
  call void @_ZN4llvm15SmallVectorImplIPNS_6MDNodeEEC2Ej(ptr noundef nonnull align 8 dereferenceable(16) %3, i32 noundef 4)
  ret void
}

; Function Attrs: mustprogress nounwind uwtable
define internal void @_ZL21copyMetadataIfPresentPN4llvm8FunctionES1_NS_9StringRefE(ptr noundef %0, ptr noundef %1, ptr %2, i64 %3) #1 {
  %5 = alloca %"class.llvm::StringRef", align 8
  %6 = alloca ptr, align 8
  %7 = alloca ptr, align 8
  %8 = alloca %"class.llvm::SmallVector.219", align 8
  %9 = alloca %"class.llvm::StringRef", align 8
  %10 = alloca ptr, align 8
  %11 = alloca ptr, align 8
  %12 = alloca ptr, align 8
  %13 = alloca ptr, align 8
  %14 = alloca %"class.llvm::StringRef", align 8
  %15 = getelementptr inbounds nuw { ptr, i64 }, ptr %5, i32 0, i32 0
  store ptr %2, ptr %15, align 8
  %16 = getelementptr inbounds nuw { ptr, i64 }, ptr %5, i32 0, i32 1
  store i64 %3, ptr %16, align 8
  store ptr %0, ptr %6, align 8
  store ptr %1, ptr %7, align 8
  call void @_ZN4llvm11SmallVectorIPNS_6MDNodeELj4EEC2Ev(ptr noundef nonnull align 8 dereferenceable(48) %8)
  %17 = load ptr, ptr %6, align 8
  call void @llvm.memcpy.p0.p0.i64(ptr align 8 %9, ptr align 8 %5, i64 16, i1 false)
  %18 = getelementptr inbounds nuw { ptr, i64 }, ptr %9, i32 0, i32 0
  %19 = load ptr, ptr %18, align 8
  %20 = getelementptr inbounds nuw { ptr, i64 }, ptr %9, i32 0, i32 1
  %21 = load i64, ptr %20, align 8
  call void @_ZNK4llvm5Value11getMetadataENS_9StringRefERNS_15SmallVectorImplIPNS_6MDNodeEEE(ptr noundef nonnull align 8 dereferenceable(24) %17, ptr %19, i64 %21, ptr noundef nonnull align 8 dereferenceable(16) %8)
  store ptr %8, ptr %10, align 8
  %22 = load ptr, ptr %10, align 8
  %23 = call noundef ptr @_ZN4llvm25SmallVectorTemplateCommonIPNS_6MDNodeEvE5beginEv(ptr noundef nonnull align 8 dereferenceable(16) %22)
  store ptr %23, ptr %11, align 8
  %24 = load ptr, ptr %10, align 8
  %25 = call noundef ptr @_ZN4llvm25SmallVectorTemplateCommonIPNS_6MDNodeEvE3endEv(ptr noundef nonnull align 8 dereferenceable(16) %24)
  store ptr %25, ptr %12, align 8
  br label %26

26:                                               ; preds = %39, %4
  %27 = load ptr, ptr %11, align 8
  %28 = load ptr, ptr %12, align 8
  %29 = icmp ne ptr %27, %28
  br i1 %29, label %30, label %42

30:                                               ; preds = %26
  %31 = load ptr, ptr %11, align 8
  %32 = load ptr, ptr %31, align 8
  store ptr %32, ptr %13, align 8
  %33 = load ptr, ptr %7, align 8
  call void @llvm.memcpy.p0.p0.i64(ptr align 8 %14, ptr align 8 %5, i64 16, i1 false)
  %34 = load ptr, ptr %13, align 8
  %35 = getelementptr inbounds nuw { ptr, i64 }, ptr %14, i32 0, i32 0
  %36 = load ptr, ptr %35, align 8
  %37 = getelementptr inbounds nuw { ptr, i64 }, ptr %14, i32 0, i32 1
  %38 = load i64, ptr %37, align 8
  call void @_ZN4llvm5Value11addMetadataENS_9StringRefERNS_6MDNodeE(ptr noundef nonnull align 8 dereferenceable(24) %33, ptr %36, i64 %38, ptr noundef nonnull align 8 dereferenceable(16) %34)
  br label %39

39:                                               ; preds = %30
  %40 = load ptr, ptr %11, align 8
  %41 = getelementptr inbounds ptr, ptr %40, i32 1
  store ptr %41, ptr %11, align 8
  br label %26

42:                                               ; preds = %26
  call void @_ZN4llvm11SmallVectorIPNS_6MDNodeELj4EED2Ev(ptr noundef nonnull align 8 dereferenceable(48) %8) #2
  ret void
}