; Function Attrs: mustprogress nounwind uwtable
define internal fastcc void @_ZL21copyMetadataIfPresentPN4llvm8FunctionES1_NS_9StringRefE(ptr noundef %0, ptr noundef %1, ptr %2, i64 %3) unnamed_addr #0 {
  %5 = alloca %"class.llvm::SmallVector.219", align 8
  %6 = getelementptr inbounds i8, ptr %5, i64 16
  call void @_ZN4llvm15SmallVectorBaseIjEC2EPvm(ptr noundef nonnull align 8 dereferenceable(16) %5, ptr noundef nonnull %6, i64 noundef 4) #19
  call void @_ZNK4llvm5Value11getMetadataENS_9StringRefERNS_15SmallVectorImplIPNS_6MDNodeEEE(ptr noundef nonnull align 8 dereferenceable(24) %0, ptr %2, i64 %3, ptr noundef nonnull align 8 dereferenceable(16) %5) #19
  %7 = load ptr, ptr %5, align 8
  %8 = call noundef i64 @_ZNK4llvm15SmallVectorBaseIjE4sizeEv(ptr noundef nonnull align 8 dereferenceable(16) %5) #19
  %9 = getelementptr inbounds ptr, ptr %7, i64 %8
  %.not13 = icmp eq i64 %8, 0
  br i1 %.not13, label %._crit_edge, label %.lr.ph

.lr.ph:                                           ; preds = %4, %.lr.ph
  %.014 = phi ptr [ %11, %.lr.ph ], [ %7, %4 ]
  %10 = load ptr, ptr %.014, align 8
  call void @_ZN4llvm5Value11addMetadataENS_9StringRefERNS_6MDNodeE(ptr noundef nonnull align 8 dereferenceable(24) %1, ptr %2, i64 %3, ptr noundef nonnull align 8 dereferenceable(16) %10) #19
  %11 = getelementptr inbounds i8, ptr %.014, i64 8
  %.not = icmp eq ptr %11, %9
  br i1 %.not, label %._crit_edge, label %.lr.ph

._crit_edge:                                      ; preds = %.lr.ph, %4
  %12 = call noundef i64 @_ZNK4llvm15SmallVectorBaseIjE4sizeEv(ptr noundef nonnull align 8 dereferenceable(16) %5) #19
  %13 = load ptr, ptr %5, align 8
  %14 = icmp eq ptr %13, %6
  br i1 %14, label %_ZN4llvm11SmallVectorIPNS_6MDNodeELj4EED2Ev.exit, label %15

15:                                               ; preds = %._crit_edge
  call void @free(ptr noundef %13) #19
  br label %_ZN4llvm11SmallVectorIPNS_6MDNodeELj4EED2Ev.exit

_ZN4llvm11SmallVectorIPNS_6MDNodeELj4EED2Ev.exit: ; preds = %._crit_edge, %15
  ret void
}